; Function Attrs: mustprogress uwtable
define dso_local void @_ZN4Luau20DataFlowGraphBuilder13visitGenericsENS_8AstArrayIPNS_14AstGenericTypeEEE(ptr noundef nonnull align 8 dereferenceable(336) %0, ptr readonly %1, i64 %2) local_unnamed_addr #2 align 2 {
  %4 = getelementptr inbounds nuw ptr, ptr %1, i64 %2
  %.not12 = icmp eq i64 %2, 0
  br i1 %.not12, label %._crit_edge, label %.lr.ph

._crit_edge:                                      ; preds = %9, %3
  ret void

.lr.ph:                                           ; preds = %3, %9
  %.013 = phi ptr [ %10, %9 ], [ %1, %3 ]
  %5 = load ptr, ptr %.013, align 8, !tbaa !349
  %6 = getelementptr inbounds nuw i8, ptr %5, i64 40
  %7 = load ptr, ptr %6, align 8, !tbaa !351
  %.not10 = icmp eq ptr %7, null
  br i1 %.not10, label %9, label %8

8:                                                ; preds = %.lr.ph
  tail call void @_ZN4Luau20DataFlowGraphBuilder9visitTypeEPNS_7AstTypeE(ptr noundef nonnull align 8 dereferenceable(336) %0, ptr noundef nonnull %7)
  br label %9

9:                                                ; preds = %8, %.lr.ph
  %10 = getelementptr inbounds nuw i8, ptr %.013, i64 8
  %.not = icmp eq ptr %10, %4
  br i1 %.not, label %._crit_edge, label %.lr.ph
}